target datalayout = "e-m:e-p270:32:32-p271:32:32-p272:64:64-i64:64-i128:128-f80:128-n8:16:32:64-S128"
target triple = "x86_64-pc-linux-gnu"

%struct.CVodeMemRec = type { double, ptr, ptr, i32, i32, i32, double, double, ptr, i32, ptr, ptr, i32, ptr, i32, i32, double, double, ptr, i32, i32, i32, ptr, ptr, ptr, i32, i32, ptr, ptr, ptr, i32, double, i32, i32, double, ptr, ptr, i32, ptr, ptr, i32, i32, i32, double, ptr, ptr, [13 x ptr], ptr, ptr, ptr, ptr, ptr, [13 x ptr], ptr, ptr, ptr, ptr, [13 x ptr], ptr, ptr, ptr, ptr, ptr, i32, [13 x ptr], ptr, ptr, ptr, ptr, ptr, i32, double, i32, i32, i32, i32, i32, double, double, double, double, double, double, double, double, [14 x double], [6 x double], [13 x double], double, double, double, double, double, double, double, double, double, double, double, i32, ptr, i32, i64, i32, i32, i32, i32, i32, double, double, double, i64, i64, i64, i64, i64, i64, i64, i64, i64, ptr, i64, i64, ptr, i64, i64, i64, i64, i64, i64, i32, i64, i64, i64, i64, i64, i64, double, double, double, ptr, ptr, ptr, ptr, ptr, i32, i32, i64, double, double, double, i32, double, i32, i32, i32, i32, i32, i32, i32, i32, i32, i32, i32, i32, i32, i32, i32, i32, ptr, ptr, ptr, i32, [6 x [4 x double]], i32, i64, ptr, i32, ptr, ptr, double, double, double, ptr, ptr, ptr, double, double, i32, i32, i64, ptr, i32, i32, ptr, i32 }
%struct.CVDlsMemRec = type { i32, i64, i64, i64, i64, i32, ptr, ptr, ptr, ptr, ptr, ptr, ptr, i64, i64, i64, i64 }

; Function Attrs: nounwind uwtable
define internal i32 @cvBandSolve(ptr noundef %0, ptr noundef %1, ptr noundef %2, ptr noundef %3, ptr noundef %4) #0 {
  %6 = alloca ptr, align 8
  %7 = alloca ptr, align 8
  %8 = alloca ptr, align 8
  %9 = alloca ptr, align 8
  %10 = alloca ptr, align 8
  %11 = alloca ptr, align 8
  %12 = alloca ptr, align 8
  store ptr %0, ptr %6, align 8, !tbaa !9
  store ptr %1, ptr %7, align 8, !tbaa !54
  store ptr %2, ptr %8, align 8, !tbaa !54
  store ptr %3, ptr %9, align 8, !tbaa !54
  store ptr %4, ptr %10, align 8, !tbaa !54
  call void @llvm.lifetime.start.p0(i64 8, ptr %11) #5
  call void @llvm.lifetime.start.p0(i64 8, ptr %12) #5
  %13 = load ptr, ptr %6, align 8, !tbaa !9
  %14 = getelementptr inbounds nuw %struct.CVodeMemRec, ptr %13, i32 0, i32 144
  %15 = load ptr, ptr %14, align 8, !tbaa !48
  store ptr %15, ptr %11, align 8, !tbaa !31
  %16 = load ptr, ptr %7, align 8, !tbaa !54
  %17 = call ptr @N_VGetArrayPointer(ptr noundef %16)
  store ptr %17, ptr %12, align 8, !tbaa !61
  %18 = load ptr, ptr %11, align 8, !tbaa !31
  %19 = getelementptr inbounds nuw %struct.CVDlsMemRec, ptr %18, i32 0, i32 9
  %20 = load ptr, ptr %19, align 8, !tbaa !45
  %21 = load ptr, ptr %11, align 8, !tbaa !31
  %22 = getelementptr inbounds nuw %struct.CVDlsMemRec, ptr %21, i32 0, i32 12
  %23 = load ptr, ptr %22, align 8, !tbaa !47
  %24 = load ptr, ptr %12, align 8, !tbaa !61
  call void @BandGBTRS(ptr noundef %20, ptr noundef %23, ptr noundef %24)
  %25 = load ptr, ptr %6, align 8, !tbaa !9
  %26 = getelementptr inbounds nuw %struct.CVodeMemRec, ptr %25, i32 0, i32 3
  %27 = load i32, ptr %26, align 8, !tbaa !62
  %28 = icmp eq i32 %27, 2
  br i1 %28, label %29, label %42

29:                                               ; preds = %5
  %30 = load ptr, ptr %6, align 8, !tbaa !9
  %31 = getelementptr inbounds nuw %struct.CVodeMemRec, ptr %30, i32 0, i32 91
  %32 = load double, ptr %31, align 8, !tbaa !63
  %33 = fcmp une double %32, 1.000000e+00
  br i1 %33, label %34, label %42

34:                                               ; preds = %29
  %35 = load ptr, ptr %6, align 8, !tbaa !9
  %36 = getelementptr inbounds nuw %struct.CVodeMemRec, ptr %35, i32 0, i32 91
  %37 = load double, ptr %36, align 8, !tbaa !63
  %38 = fadd double 1.000000e+00, %37
  %39 = fdiv double 2.000000e+00, %38
  %40 = load ptr, ptr %7, align 8, !tbaa !54
  %41 = load ptr, ptr %7, align 8, !tbaa !54
  call void @N_VScale(double noundef %39, ptr noundef %40, ptr noundef %41)
  br label %42

42:                                               ; preds = %34, %29, %5
  %43 = load ptr, ptr %11, align 8, !tbaa !31
  %44 = getelementptr inbounds nuw %struct.CVDlsMemRec, ptr %43, i32 0, i32 16
  store i64 0, ptr %44, align 8, !tbaa !39
  call void @llvm.lifetime.end.p0(i64 8, ptr %12) #5
  call void @llvm.lifetime.end.p0(i64 8, ptr %11) #5
  ret i32 0
}