; Function Attrs: nounwind uwtable
define internal noundef i32 @cvBandSolve(ptr noundef readonly captures(none) %0, ptr noundef %1, ptr readnone captures(none) %2, ptr readnone captures(none) %3, ptr readnone captures(none) %4) #0 {
  %6 = getelementptr inbounds nuw i8, ptr %0, i64 1696
  %7 = load ptr, ptr %6, align 8, !tbaa !40
  %8 = tail call ptr @N_VGetArrayPointer(ptr noundef %1) #7
  %9 = getelementptr inbounds nuw i8, ptr %7, i64 72
  %10 = load ptr, ptr %9, align 8, !tbaa !37
  %11 = getelementptr inbounds nuw i8, ptr %7, i64 96
  %12 = load ptr, ptr %11, align 8, !tbaa !39
  tail call void @BandGBTRS(ptr noundef %10, ptr noundef %12, ptr noundef %8) #7
  %13 = getelementptr inbounds nuw i8, ptr %0, i64 24
  %14 = load i32, ptr %13, align 8, !tbaa !51
  %15 = icmp eq i32 %14, 2
  br i1 %15, label %16, label %23

16:                                               ; preds = %5
  %17 = getelementptr inbounds nuw i8, ptr %0, i64 1288
  %18 = load double, ptr %17, align 8, !tbaa !52
  %19 = fcmp une double %18, 1.000000e+00
  br i1 %19, label %20, label %23

20:                                               ; preds = %16
  %21 = fadd double %18, 1.000000e+00
  %22 = fdiv double 2.000000e+00, %21
  tail call void @N_VScale(double noundef %22, ptr noundef %1, ptr noundef %1) #7
  br label %23

23:                                               ; preds = %20, %16, %5
  %24 = getelementptr inbounds nuw i8, ptr %7, i64 128
  store i64 0, ptr %24, align 8, !tbaa !31
  ret i32 0
}